; Function Attrs: nounwind uwtable
define internal ptr @get_video_buffer(ptr noundef readonly captures(none) %0, i32 noundef %1, i32 noundef %2) #1 {
  %4 = getelementptr inbounds nuw i8, ptr %0, i64 16
  %5 = load ptr, ptr %4, align 8, !tbaa !63
  %6 = getelementptr inbounds nuw i8, ptr %0, i64 24
  %7 = load ptr, ptr %6, align 8, !tbaa !72
  %8 = getelementptr inbounds nuw i8, ptr %5, i64 24
  %9 = load ptr, ptr %8, align 8, !tbaa !57
  %10 = ptrtoint ptr %7 to i64
  %11 = ptrtoint ptr %9 to i64
  %12 = sub i64 %10, %11
  %13 = sdiv exact i64 %12, 48
  %14 = trunc i64 %13 to i32
  %15 = getelementptr inbounds nuw i8, ptr %5, i64 56
  %16 = load ptr, ptr %15, align 8, !tbaa !45
  %17 = getelementptr inbounds nuw i8, ptr %5, i64 64
  %18 = load i32, ptr %17, align 8, !tbaa !38
  %19 = urem i32 %14, %18
  %20 = zext i32 %19 to i64
  %21 = getelementptr inbounds nuw ptr, ptr %16, i64 %20
  %22 = load ptr, ptr %21, align 8, !tbaa !46
  %23 = tail call ptr @ff_get_video_buffer(ptr noundef %22, i32 noundef %1, i32 noundef %2) #8
  ret ptr %23
}